target datalayout = "e-m:e-p270:32:32-p271:32:32-p272:64:64-i64:64-i128:128-f80:128-n8:16:32:64-S128"
target triple = "x86_64-pc-linux-gnu"

%struct.archive_string = type { ptr, i64, i64 }
%struct.tree = type { ptr, ptr, ptr, ptr, i32, i32, i32, %struct.archive_string, ptr, i64, i32, i32, i32, i32, i32, %struct.stat, %struct.stat, i32, i32, %struct.restore_time, ptr, ptr, i32, i32, i8, i8, ptr, ptr, i32, i32, i32, i32, i32, i32, i64, i64, ptr, i64 }
%struct.stat = type { i64, i64, i64, i32, i32, i32, i32, i64, i64, i64, i64, %struct.timespec, %struct.timespec, %struct.timespec, [3 x i64] }
%struct.timespec = type { i64, i64 }
%struct.restore_time = type { ptr, i64, i64, i64, i64, i32, i32 }

; Function Attrs: nounwind uwtable
define internal i32 @tree_enter_initial_dir(ptr noundef %0) #0 {
  %2 = alloca ptr, align 8
  %3 = alloca i32, align 4
  store ptr %0, ptr %2, align 8
  store i32 0, ptr %3, align 4
  %4 = load ptr, ptr %2, align 8
  %5 = getelementptr inbounds %struct.tree, ptr %4, i32 0, i32 4
  %6 = load i32, ptr %5, align 8
  %7 = and i32 %6, 256
  %8 = icmp eq i32 %7, 0
  br i1 %8, label %9, label %26

9:                                                ; preds = %1
  %10 = load ptr, ptr %2, align 8
  %11 = getelementptr inbounds %struct.tree, ptr %10, i32 0, i32 13
  %12 = load i32, ptr %11, align 4
  %13 = call i32 @fchdir(i32 noundef %12) #10
  store i32 %13, ptr %3, align 4
  %14 = load i32, ptr %3, align 4
  %15 = icmp eq i32 %14, 0
  br i1 %15, label %16, label %25

16:                                               ; preds = %9
  %17 = load ptr, ptr %2, align 8
  %18 = getelementptr inbounds %struct.tree, ptr %17, i32 0, i32 4
  %19 = load i32, ptr %18, align 8
  %20 = and i32 %19, -65
  store i32 %20, ptr %18, align 8
  %21 = load ptr, ptr %2, align 8
  %22 = getelementptr inbounds %struct.tree, ptr %21, i32 0, i32 4
  %23 = load i32, ptr %22, align 8
  %24 = or i32 %23, 256
  store i32 %24, ptr %22, align 8
  br label %25

25:                                               ; preds = %16, %9
  br label %26

26:                                               ; preds = %25, %1
  %27 = load i32, ptr %3, align 4
  ret i32 %27
}