; Function Attrs: nounwind uwtable
define internal fastcc void @tree_enter_initial_dir(ptr noundef captures(none) %0) unnamed_addr #0 {
  %2 = getelementptr inbounds nuw i8, ptr %0, i64 32
  %3 = load i32, ptr %2, align 8
  %4 = and i32 %3, 256
  %5 = icmp eq i32 %4, 0
  br i1 %5, label %6, label %15

6:                                                ; preds = %1
  %7 = getelementptr inbounds nuw i8, ptr %0, i64 100
  %8 = load i32, ptr %7, align 4
  %9 = tail call i32 @fchdir(i32 noundef %8) #17
  %10 = icmp eq i32 %9, 0
  br i1 %10, label %11, label %15

11:                                               ; preds = %6
  %12 = load i32, ptr %2, align 8
  %13 = and i32 %12, -321
  %14 = or disjoint i32 %13, 256
  store i32 %14, ptr %2, align 8
  br label %15

15:                                               ; preds = %6, %11, %1
  ret void
}